; ModuleID = '57/1857.c'
source_filename = "57/1857.c"
target datalayout = "e-m:e-p270:32:32-p271:32:32-p272:64:64-i64:64-f80:128-n8:16:32:64-S128"
target triple = "x86_64-pc-linux-gnu"

@.str = private unnamed_addr constant [3 x i8] c"%d\00", align 1
@.str.1 = private unnamed_addr constant [3 x i8] c"%s\00", align 1
@.str.2 = private unnamed_addr constant [4 x i8] c"%s\0A\00", align 1

; Function Attrs: noinline nounwind uwtable
define dso_local i32 @main() #0 {
  %1 = alloca i32, align 4
  %2 = alloca [2000 x [2000 x i8]], align 16
  %3 = alloca i32, align 4
  %4 = alloca i32, align 4
  %5 = alloca [2000 x i32], align 16
  %6 = alloca i32, align 4
  store i32 0, i32* %1, align 4
  %7 = call i32 (i8*, ...) @__isoc99_scanf(i8* getelementptr inbounds ([3 x i8], [3 x i8]* @.str, i64 0, i64 0), i32* %3)
  store i32 0, i32* %4, align 4
  br label %8

8:                                                ; preds = %27, %0
  %9 = load i32, i32* %4, align 4
  %10 = load i32, i32* %3, align 4
  %11 = icmp slt i32 %9, %10
  br i1 %11, label %12, label %30

12:                                               ; preds = %8
  %13 = load i32, i32* %4, align 4
  %14 = sext i32 %13 to i64
  %15 = getelementptr inbounds [2000 x [2000 x i8]], [2000 x [2000 x i8]]* %2, i64 0, i64 %14
  %16 = getelementptr inbounds [2000 x i8], [2000 x i8]* %15, i64 0, i64 0
  %17 = call i32 (i8*, ...) @__isoc99_scanf(i8* getelementptr inbounds ([3 x i8], [3 x i8]* @.str.1, i64 0, i64 0), i8* %16)
  %18 = load i32, i32* %4, align 4
  %19 = sext i32 %18 to i64
  %20 = getelementptr inbounds [2000 x [2000 x i8]], [2000 x [2000 x i8]]* %2, i64 0, i64 %19
  %21 = getelementptr inbounds [2000 x i8], [2000 x i8]* %20, i64 0, i64 0
  %22 = call i64 @strlen(i8* %21) #3
  %23 = trunc i64 %22 to i32
  %24 = load i32, i32* %4, align 4
  %25 = sext i32 %24 to i64
  %26 = getelementptr inbounds [2000 x i32], [2000 x i32]* %5, i64 0, i64 %25
  store i32 %23, i32* %26, align 4
  br label %27

27:                                               ; preds = %12
  %28 = load i32, i32* %4, align 4
  %29 = add nsw i32 %28, 1
  store i32 %29, i32* %4, align 4
  br label %8

30:                                               ; preds = %8
  store i32 0, i32* %4, align 4
  br label %31

31:                                               ; preds = %72, %30
  %32 = load i32, i32* %4, align 4
  %33 = load i32, i32* %3, align 4
  %34 = icmp slt i32 %32, %33
  br i1 %34, label %35, label %75

35:                                               ; preds = %31
  %36 = load i32, i32* %4, align 4
  %37 = sext i32 %36 to i64
  %38 = getelementptr inbounds [2000 x [2000 x i8]], [2000 x [2000 x i8]]* %2, i64 0, i64 %37
  %39 = load i32, i32* %4, align 4
  %40 = sext i32 %39 to i64
  %41 = getelementptr inbounds [2000 x i32], [2000 x i32]* %5, i64 0, i64 %40
  %42 = load i32, i32* %41, align 4
  %43 = sub nsw i32 %42, 1
  %44 = sext i32 %43 to i64
  %45 = getelementptr inbounds [2000 x i8], [2000 x i8]* %38, i64 0, i64 %44
  %46 = load i8, i8* %45, align 1
  %47 = sext i8 %46 to i32
  %48 = icmp ne i32 %47, 103
  br i1 %48, label %49, label %60

49:                                               ; preds = %35
  %50 = load i32, i32* %4, align 4
  %51 = sext i32 %50 to i64
  %52 = getelementptr inbounds [2000 x [2000 x i8]], [2000 x [2000 x i8]]* %2, i64 0, i64 %51
  %53 = load i32, i32* %4, align 4
  %54 = sext i32 %53 to i64
  %55 = getelementptr inbounds [2000 x i32], [2000 x i32]* %5, i64 0, i64 %54
  %56 = load i32, i32* %55, align 4
  %57 = sub nsw i32 %56, 2
  %58 = sext i32 %57 to i64
  %59 = getelementptr inbounds [2000 x i8], [2000 x i8]* %52, i64 0, i64 %58
  store i8 0, i8* %59, align 1
  br label %71

60:                                               ; preds = %35
  %61 = load i32, i32* %4, align 4
  %62 = sext i32 %61 to i64
  %63 = getelementptr inbounds [2000 x [2000 x i8]], [2000 x [2000 x i8]]* %2, i64 0, i64 %62
  %64 = load i32, i32* %4, align 4
  %65 = sext i32 %64 to i64
  %66 = getelementptr inbounds [2000 x i32], [2000 x i32]* %5, i64 0, i64 %65
  %67 = load i32, i32* %66, align 4
  %68 = sub nsw i32 %67, 3
  %69 = sext i32 %68 to i64
  %70 = getelementptr inbounds [2000 x i8], [2000 x i8]* %63, i64 0, i64 %69
  store i8 0, i8* %70, align 1
  br label %71

71:                                               ; preds = %60, %49
  br label %72

72:                                               ; preds = %71
  %73 = load i32, i32* %4, align 4
  %74 = add nsw i32 %73, 1
  store i32 %74, i32* %4, align 4
  br label %31

75:                                               ; preds = %31
  store i32 0, i32* %4, align 4
  br label %76

76:                                               ; preds = %86, %75
  %77 = load i32, i32* %4, align 4
  %78 = load i32, i32* %3, align 4
  %79 = icmp slt i32 %77, %78
  br i1 %79, label %80, label %89

80:                                               ; preds = %76
  %81 = load i32, i32* %4, align 4
  %82 = sext i32 %81 to i64
  %83 = getelementptr inbounds [2000 x [2000 x i8]], [2000 x [2000 x i8]]* %2, i64 0, i64 %82
  %84 = getelementptr inbounds [2000 x i8], [2000 x i8]* %83, i64 0, i64 0
  %85 = call i32 (i8*, ...) @printf(i8* getelementptr inbounds ([4 x i8], [4 x i8]* @.str.2, i64 0, i64 0), i8* %84)
  br label %86

86:                                               ; preds = %80
  %87 = load i32, i32* %4, align 4
  %88 = add nsw i32 %87, 1
  store i32 %88, i32* %4, align 4
  br label %76

89:                                               ; preds = %76
  ret i32 0
}

declare dso_local i32 @__isoc99_scanf(i8*, ...) #1

; Function Attrs: nounwind readonly
declare dso_local i64 @strlen(i8*) #2

declare dso_local i32 @printf(i8*, ...) #1


!llvm.module.flags = !{!0}
!llvm.ident = !{!1}

!0 = !{i32 1, !"wchar_size", i32 4}
!1 = !{!"clang version 10.0.0-4ubuntu1 "}
